; ModuleID = '46/184.c'
source_filename = "46/184.c"
target datalayout = "e-m:e-p270:32:32-p271:32:32-p272:64:64-i64:64-f80:128-n8:16:32:64-S128"
target triple = "x86_64-pc-linux-gnu"

@.str = private unnamed_addr constant [5 x i8] c"%d%d\00", align 1
@.str.1 = private unnamed_addr constant [3 x i8] c"%d\00", align 1
@.str.2 = private unnamed_addr constant [4 x i8] c"%d\0A\00", align 1

; Function Attrs: noinline nounwind uwtable
define dso_local i32 @main() #0 {
  %1 = alloca i32, align 4
  %2 = alloca [100 x [100 x i32]], align 16
  %3 = alloca i32, align 4
  %4 = alloca i32, align 4
  %5 = alloca i32, align 4
  %6 = alloca i32, align 4
  %7 = alloca i32, align 4
  %8 = alloca i32, align 4
  %9 = alloca i32, align 4
  store i32 0, i32* %1, align 4
  store i32 0, i32* %8, align 4
  %10 = call i32 (i8*, ...) @__isoc99_scanf(i8* getelementptr inbounds ([5 x i8], [5 x i8]* @.str, i64 0, i64 0), i32* %3, i32* %4)
  %11 = load i32, i32* %3, align 4
  %12 = load i32, i32* %4, align 4
  %13 = mul nsw i32 %11, %12
  store i32 %13, i32* %9, align 4
  store i32 0, i32* %5, align 4
  br label %14

14:                                               ; preds = %35, %0
  %15 = load i32, i32* %5, align 4
  %16 = load i32, i32* %3, align 4
  %17 = icmp slt i32 %15, %16
  br i1 %17, label %18, label %38

18:                                               ; preds = %14
  store i32 0, i32* %6, align 4
  br label %19

19:                                               ; preds = %31, %18
  %20 = load i32, i32* %6, align 4
  %21 = load i32, i32* %4, align 4
  %22 = icmp slt i32 %20, %21
  br i1 %22, label %23, label %34

23:                                               ; preds = %19
  %24 = load i32, i32* %5, align 4
  %25 = sext i32 %24 to i64
  %26 = getelementptr inbounds [100 x [100 x i32]], [100 x [100 x i32]]* %2, i64 0, i64 %25
  %27 = load i32, i32* %6, align 4
  %28 = sext i32 %27 to i64
  %29 = getelementptr inbounds [100 x i32], [100 x i32]* %26, i64 0, i64 %28
  %30 = call i32 (i8*, ...) @__isoc99_scanf(i8* getelementptr inbounds ([3 x i8], [3 x i8]* @.str.1, i64 0, i64 0), i32* %29)
  br label %31

31:                                               ; preds = %23
  %32 = load i32, i32* %6, align 4
  %33 = add nsw i32 %32, 1
  store i32 %33, i32* %6, align 4
  br label %19

34:                                               ; preds = %19
  br label %35

35:                                               ; preds = %34
  %36 = load i32, i32* %5, align 4
  %37 = add nsw i32 %36, 1
  store i32 %37, i32* %5, align 4
  br label %14

38:                                               ; preds = %14
  store i32 0, i32* %7, align 4
  br label %39

39:                                               ; preds = %159, %38
  %40 = load i32, i32* %7, align 4
  store i32 %40, i32* %6, align 4
  br label %41

41:                                               ; preds = %59, %39
  %42 = load i32, i32* %6, align 4
  %43 = load i32, i32* %4, align 4
  %44 = sub nsw i32 %43, 1
  %45 = load i32, i32* %7, align 4
  %46 = sub nsw i32 %44, %45
  %47 = icmp sle i32 %42, %46
  br i1 %47, label %48, label %62

48:                                               ; preds = %41
  %49 = load i32, i32* %7, align 4
  %50 = sext i32 %49 to i64
  %51 = getelementptr inbounds [100 x [100 x i32]], [100 x [100 x i32]]* %2, i64 0, i64 %50
  %52 = load i32, i32* %6, align 4
  %53 = sext i32 %52 to i64
  %54 = getelementptr inbounds [100 x i32], [100 x i32]* %51, i64 0, i64 %53
  %55 = load i32, i32* %54, align 4
  %56 = call i32 (i8*, ...) @printf(i8* getelementptr inbounds ([4 x i8], [4 x i8]* @.str.2, i64 0, i64 0), i32 %55)
  %57 = load i32, i32* %8, align 4
  %58 = add nsw i32 %57, 1
  store i32 %58, i32* %8, align 4
  br label %59

59:                                               ; preds = %48
  %60 = load i32, i32* %6, align 4
  %61 = add nsw i32 %60, 1
  store i32 %61, i32* %6, align 4
  br label %41

62:                                               ; preds = %41
  %63 = load i32, i32* %8, align 4
  %64 = load i32, i32* %9, align 4
  %65 = icmp eq i32 %63, %64
  br i1 %65, label %66, label %67

66:                                               ; preds = %62
  br label %162

67:                                               ; preds = %62
  %68 = load i32, i32* %7, align 4
  %69 = add nsw i32 %68, 1
  store i32 %69, i32* %5, align 4
  br label %70

70:                                               ; preds = %91, %67
  %71 = load i32, i32* %5, align 4
  %72 = load i32, i32* %3, align 4
  %73 = sub nsw i32 %72, 1
  %74 = load i32, i32* %7, align 4
  %75 = sub nsw i32 %73, %74
  %76 = icmp sle i32 %71, %75
  br i1 %76, label %77, label %94

77:                                               ; preds = %70
  %78 = load i32, i32* %5, align 4
  %79 = sext i32 %78 to i64
  %80 = getelementptr inbounds [100 x [100 x i32]], [100 x [100 x i32]]* %2, i64 0, i64 %79
  %81 = load i32, i32* %4, align 4
  %82 = load i32, i32* %7, align 4
  %83 = sub nsw i32 %81, %82
  %84 = sub nsw i32 %83, 1
  %85 = sext i32 %84 to i64
  %86 = getelementptr inbounds [100 x i32], [100 x i32]* %80, i64 0, i64 %85
  %87 = load i32, i32* %86, align 4
  %88 = call i32 (i8*, ...) @printf(i8* getelementptr inbounds ([4 x i8], [4 x i8]* @.str.2, i64 0, i64 0), i32 %87)
  %89 = load i32, i32* %8, align 4
  %90 = add nsw i32 %89, 1
  store i32 %90, i32* %8, align 4
  br label %91

91:                                               ; preds = %77
  %92 = load i32, i32* %5, align 4
  %93 = add nsw i32 %92, 1
  store i32 %93, i32* %5, align 4
  br label %70

94:                                               ; preds = %70
  %95 = load i32, i32* %8, align 4
  %96 = load i32, i32* %9, align 4
  %97 = icmp eq i32 %95, %96
  br i1 %97, label %98, label %99

98:                                               ; preds = %94
  br label %162

99:                                               ; preds = %94
  %100 = load i32, i32* %4, align 4
  %101 = load i32, i32* %7, align 4
  %102 = sub nsw i32 %100, %101
  %103 = sub nsw i32 %102, 2
  store i32 %103, i32* %6, align 4
  br label %104

104:                                              ; preds = %122, %99
  %105 = load i32, i32* %6, align 4
  %106 = load i32, i32* %7, align 4
  %107 = icmp sge i32 %105, %106
  br i1 %107, label %108, label %125

108:                                              ; preds = %104
  %109 = load i32, i32* %3, align 4
  %110 = load i32, i32* %7, align 4
  %111 = sub nsw i32 %109, %110
  %112 = sub nsw i32 %111, 1
  %113 = sext i32 %112 to i64
  %114 = getelementptr inbounds [100 x [100 x i32]], [100 x [100 x i32]]* %2, i64 0, i64 %113
  %115 = load i32, i32* %6, align 4
  %116 = sext i32 %115 to i64
  %117 = getelementptr inbounds [100 x i32], [100 x i32]* %114, i64 0, i64 %116
  %118 = load i32, i32* %117, align 4
  %119 = call i32 (i8*, ...) @printf(i8* getelementptr inbounds ([4 x i8], [4 x i8]* @.str.2, i64 0, i64 0), i32 %118)
  %120 = load i32, i32* %8, align 4
  %121 = add nsw i32 %120, 1
  store i32 %121, i32* %8, align 4
  br label %122

122:                                              ; preds = %108
  %123 = load i32, i32* %6, align 4
  %124 = add nsw i32 %123, -1
  store i32 %124, i32* %6, align 4
  br label %104

125:                                              ; preds = %104
  %126 = load i32, i32* %8, align 4
  %127 = load i32, i32* %9, align 4
  %128 = icmp eq i32 %126, %127
  br i1 %128, label %129, label %130

129:                                              ; preds = %125
  br label %162

130:                                              ; preds = %125
  %131 = load i32, i32* %3, align 4
  %132 = load i32, i32* %7, align 4
  %133 = sub nsw i32 %131, %132
  %134 = sub nsw i32 %133, 2
  store i32 %134, i32* %5, align 4
  br label %135

135:                                              ; preds = %150, %130
  %136 = load i32, i32* %5, align 4
  %137 = load i32, i32* %7, align 4
  %138 = icmp sgt i32 %136, %137
  br i1 %138, label %139, label %153

139:                                              ; preds = %135
  %140 = load i32, i32* %5, align 4
  %141 = sext i32 %140 to i64
  %142 = getelementptr inbounds [100 x [100 x i32]], [100 x [100 x i32]]* %2, i64 0, i64 %141
  %143 = load i32, i32* %7, align 4
  %144 = sext i32 %143 to i64
  %145 = getelementptr inbounds [100 x i32], [100 x i32]* %142, i64 0, i64 %144
  %146 = load i32, i32* %145, align 4
  %147 = call i32 (i8*, ...) @printf(i8* getelementptr inbounds ([4 x i8], [4 x i8]* @.str.2, i64 0, i64 0), i32 %146)
  %148 = load i32, i32* %8, align 4
  %149 = add nsw i32 %148, 1
  store i32 %149, i32* %8, align 4
  br label %150

150:                                              ; preds = %139
  %151 = load i32, i32* %5, align 4
  %152 = add nsw i32 %151, -1
  store i32 %152, i32* %5, align 4
  br label %135

153:                                              ; preds = %135
  %154 = load i32, i32* %8, align 4
  %155 = load i32, i32* %9, align 4
  %156 = icmp eq i32 %154, %155
  br i1 %156, label %157, label %158

157:                                              ; preds = %153
  br label %162

158:                                              ; preds = %153
  br label %159

159:                                              ; preds = %158
  %160 = load i32, i32* %7, align 4
  %161 = add nsw i32 %160, 1
  store i32 %161, i32* %7, align 4
  br label %39

162:                                              ; preds = %157, %129, %98, %66
  ret i32 0
}

declare dso_local i32 @__isoc99_scanf(i8*, ...) #1

declare dso_local i32 @printf(i8*, ...) #1


!llvm.module.flags = !{!0}
!llvm.ident = !{!1}

!0 = !{i32 1, !"wchar_size", i32 4}
!1 = !{!"clang version 10.0.0-4ubuntu1 "}
